; Function Attrs: mustprogress nofree norecurse nosync nounwind willreturn memory(read, inaccessiblemem: none) uwtable
define hidden noundef zeroext i1 @_ZNK13proof_checker13is_hypothesisEPK3app(ptr nocapture noundef nonnull readonly align 8 dereferenceable(156) %this, ptr nocapture noundef readonly %p) local_unnamed_addr #11 align 2 {
entry:
  %m_kind.i.i.i = getelementptr inbounds i8, ptr %p, i64 4
  %bf.load.i.i.i = load i32, ptr %m_kind.i.i.i, align 4
  %bf.clear.i.i.i = and i32 %bf.load.i.i.i, 65535
  %cmp.i.i = icmp eq i32 %bf.clear.i.i.i, 0
  br i1 %cmp.i.i, label %_ZNK11ast_manager8is_proofEPK4expr.exit, label %land.end

_ZNK11ast_manager8is_proofEPK4expr.exit:          ; preds = %entry
  %0 = load ptr, ptr %this, align 8
  %m_decl.i.i = getelementptr inbounds i8, ptr %p, i64 16
  %1 = load ptr, ptr %m_decl.i.i, align 8
  %m_range.i.i = getelementptr inbounds i8, ptr %1, i64 40
  %2 = load ptr, ptr %m_range.i.i, align 8
  %m_proof_sort.i = getelementptr inbounds i8, ptr %0, i64 848
  %3 = load ptr, ptr %m_proof_sort.i, align 8
  %cmp.i = icmp eq ptr %2, %3
  br i1 %cmp.i, label %land.rhs, label %land.end

land.rhs:                                         ; preds = %_ZNK11ast_manager8is_proofEPK4expr.exit
  %m_info.i.i = getelementptr inbounds i8, ptr %1, i64 24
  %4 = load ptr, ptr %m_info.i.i, align 8
  %cmp.i.i3 = icmp eq ptr %4, null
  br i1 %cmp.i.i3, label %land.end, label %cond.false.i.i

cond.false.i.i:                                   ; preds = %land.rhs
  %m_kind.i.i.i4 = getelementptr inbounds i8, ptr %4, i64 4
  %5 = load i32, ptr %m_kind.i.i.i4, align 4
  %6 = icmp eq i32 %5, 34
  br label %land.end

land.end:                                         ; preds = %cond.false.i.i, %land.rhs, %entry, %_ZNK11ast_manager8is_proofEPK4expr.exit
  %7 = phi i1 [ false, %_ZNK11ast_manager8is_proofEPK4expr.exit ], [ false, %entry ], [ %6, %cond.false.i.i ], [ false, %land.rhs ]
  ret i1 %7
}